target datalayout = "e-m:e-p270:32:32-p271:32:32-p272:64:64-i64:64-i128:128-f80:128-n8:16:32:64-S128"
target triple = "x86_64-pc-linux-gnu"

@SessionReplicationRole = dso_local global i32 0, align 4

; Function Attrs: nounwind uwtable
define dso_local void @assign_session_replication_role(i32 noundef %0, ptr noundef %1) #0 {
  %3 = alloca i32, align 4
  %4 = alloca ptr, align 8
  store i32 %0, ptr %3, align 4
  store ptr %1, ptr %4, align 8
  %5 = load i32, ptr @SessionReplicationRole, align 4
  %6 = load i32, ptr %3, align 4
  %7 = icmp ne i32 %5, %6
  br i1 %7, label %8, label %9

8:                                                ; preds = %2
  call void @ResetPlanCache()
  br label %9

9:                                                ; preds = %8, %2
  ret void
}