; Function Attrs: nounwind uwtable
define dso_local void @assign_session_replication_role(i32 noundef %0, ptr noundef readnone captures(none) %1) local_unnamed_addr #0 {
  %3 = load i32, ptr @SessionReplicationRole, align 4
  %.not = icmp eq i32 %3, %0
  br i1 %.not, label %5, label %4

4:                                                ; preds = %2
  tail call void @ResetPlanCache() #16
  br label %5

5:                                                ; preds = %4, %2
  ret void
}